; Function Attrs: mustprogress uwtable
define noundef i32 @_ZN7rocksdb16ThreadStatusUtil23SetThreadOperationStageENS_12ThreadStatus14OperationStageE(i32 noundef %0) local_unnamed_addr #3 align 2 {
  %2 = tail call align 8 ptr @llvm.threadlocal.address.p0(ptr align 8 @_ZN7rocksdb16ThreadStatusUtil27thread_updater_local_cache_E)
  %3 = load ptr, ptr %2, align 8, !tbaa !18
  %4 = icmp eq ptr %3, null
  br i1 %4, label %7, label %5

5:                                                ; preds = %1
  %6 = tail call noundef i32 @_ZN7rocksdb19ThreadStatusUpdater23SetThreadOperationStageENS_12ThreadStatus14OperationStageE(ptr noundef nonnull align 8 dereferenceable(216) %3, i32 noundef %0)
  br label %7

7:                                                ; preds = %1, %5
  %.0 = phi i32 [ %6, %5 ], [ 0, %1 ]
  ret i32 %.0
}